target datalayout = "e-m:e-p270:32:32-p271:32:32-p272:64:64-i64:64-i128:128-f80:128-n8:16:32:64-S128"
target triple = "x86_64-pc-linux-gnu"

@.str.20 = private unnamed_addr constant [14 x i8] c"array too big\00", align 1

; Function Attrs: nounwind uwtable
define internal i32 @sort(ptr noundef %0) #0 {
  %2 = alloca ptr, align 8
  %3 = alloca i64, align 8
  store ptr %0, ptr %2, align 8, !tbaa !4
  call void @llvm.lifetime.start.p0(i64 8, ptr %3) #4
  %4 = load ptr, ptr %2, align 8, !tbaa !4
  call void @checktab(ptr noundef %4, i32 noundef 1, i32 noundef 7)
  %5 = load ptr, ptr %2, align 8, !tbaa !4
  %6 = call i64 @luaL_len(ptr noundef %5, i32 noundef 1)
  store i64 %6, ptr %3, align 8, !tbaa !9
  %7 = load i64, ptr %3, align 8, !tbaa !9
  %8 = icmp sgt i64 %7, 1
  br i1 %8, label %9, label %32

9:                                                ; preds = %1
  %10 = load i64, ptr %3, align 8, !tbaa !9
  %11 = icmp slt i64 %10, 2147483647
  %12 = zext i1 %11 to i32
  %13 = icmp ne i32 %12, 0
  %14 = zext i1 %13 to i32
  %15 = sext i32 %14 to i64
  %16 = call i64 @llvm.expect.i64(i64 %15, i64 1)
  %17 = icmp ne i64 %16, 0
  br i1 %17, label %21, label %18

18:                                               ; preds = %9
  %19 = load ptr, ptr %2, align 8, !tbaa !4
  %20 = call i32 @luaL_argerror(ptr noundef %19, i32 noundef 1, ptr noundef @.str.20)
  br label %21

21:                                               ; preds = %18, %9
  %22 = load ptr, ptr %2, align 8, !tbaa !4
  %23 = call i32 @lua_type(ptr noundef %22, i32 noundef 2)
  %24 = icmp sle i32 %23, 0
  br i1 %24, label %27, label %25

25:                                               ; preds = %21
  %26 = load ptr, ptr %2, align 8, !tbaa !4
  call void @luaL_checktype(ptr noundef %26, i32 noundef 2, i32 noundef 6)
  br label %27

27:                                               ; preds = %25, %21
  %28 = load ptr, ptr %2, align 8, !tbaa !4
  call void @lua_settop(ptr noundef %28, i32 noundef 2)
  %29 = load ptr, ptr %2, align 8, !tbaa !4
  %30 = load i64, ptr %3, align 8, !tbaa !9
  %31 = trunc i64 %30 to i32
  call void @auxsort(ptr noundef %29, i32 noundef 1, i32 noundef %31, i32 noundef 0)
  br label %32

32:                                               ; preds = %27, %1
  call void @llvm.lifetime.end.p0(i64 8, ptr %3) #4
  ret i32 0
}