; Function Attrs: nounwind uwtable
define internal noundef i32 @sort(ptr noundef %0) #0 {
  tail call fastcc void @checktab(ptr noundef %0, i32 noundef 1, i32 noundef 7)
  %2 = tail call i64 @luaL_len(ptr noundef %0, i32 noundef 1) #3
  %3 = icmp sgt i64 %2, 1
  br i1 %3, label %4, label %14

4:                                                ; preds = %1
  %5 = icmp samesign ult i64 %2, 2147483647
  br i1 %5, label %8, label %6, !prof !9

6:                                                ; preds = %4
  %7 = tail call i32 @luaL_argerror(ptr noundef %0, i32 noundef 1, ptr noundef nonnull @.str.20) #3
  br label %8

8:                                                ; preds = %6, %4
  %9 = tail call i32 @lua_type(ptr noundef %0, i32 noundef 2) #3
  %10 = icmp slt i32 %9, 1
  br i1 %10, label %12, label %11

11:                                               ; preds = %8
  tail call void @luaL_checktype(ptr noundef %0, i32 noundef 2, i32 noundef 6) #3
  br label %12

12:                                               ; preds = %11, %8
  tail call void @lua_settop(ptr noundef %0, i32 noundef 2) #3
  %13 = trunc i64 %2 to i32
  tail call fastcc void @auxsort(ptr noundef %0, i32 noundef 1, i32 noundef %13, i32 noundef 0)
  br label %14

14:                                               ; preds = %12, %1
  ret i32 0
}